target datalayout = "e-m:e-p270:32:32-p271:32:32-p272:64:64-i64:64-i128:128-f80:128-n8:16:32:64-S128"
target triple = "x86_64-pc-linux-gnu"

%struct.sgraph = type { i32, i32, i32, i32, ptr, ptr }
%struct.snode = type { i32, i32, ptr, ptr, i16, i16, [2 x ptr], ptr, i32, i8 }
%struct.sedge = type { double, i32, i32, i32 }

; Function Attrs: nounwind uwtable
define internal ptr @adjacentNode(ptr noundef %0, ptr noundef %1, ptr noundef %2) #0 {
  %4 = alloca ptr, align 8
  %5 = alloca ptr, align 8
  %6 = alloca ptr, align 8
  %7 = alloca ptr, align 8
  store ptr %0, ptr %5, align 8, !tbaa !3
  store ptr %1, ptr %6, align 8, !tbaa !40
  store ptr %2, ptr %7, align 8, !tbaa !36
  %8 = load ptr, ptr %6, align 8, !tbaa !40
  %9 = getelementptr inbounds nuw %struct.sedge, ptr %8, i32 0, i32 2
  %10 = load i32, ptr %9, align 4, !tbaa !41
  %11 = load ptr, ptr %7, align 8, !tbaa !36
  %12 = getelementptr inbounds nuw %struct.snode, ptr %11, i32 0, i32 8
  %13 = load i32, ptr %12, align 8, !tbaa !37
  %14 = icmp eq i32 %10, %13
  br i1 %14, label %15, label %24

15:                                               ; preds = %3
  %16 = load ptr, ptr %5, align 8, !tbaa !3
  %17 = getelementptr inbounds nuw %struct.sgraph, ptr %16, i32 0, i32 4
  %18 = load ptr, ptr %17, align 8, !tbaa !16
  %19 = load ptr, ptr %6, align 8, !tbaa !40
  %20 = getelementptr inbounds nuw %struct.sedge, ptr %19, i32 0, i32 3
  %21 = load i32, ptr %20, align 8, !tbaa !43
  %22 = sext i32 %21 to i64
  %23 = getelementptr inbounds %struct.snode, ptr %18, i64 %22
  store ptr %23, ptr %4, align 8
  br label %33

24:                                               ; preds = %3
  %25 = load ptr, ptr %5, align 8, !tbaa !3
  %26 = getelementptr inbounds nuw %struct.sgraph, ptr %25, i32 0, i32 4
  %27 = load ptr, ptr %26, align 8, !tbaa !16
  %28 = load ptr, ptr %6, align 8, !tbaa !40
  %29 = getelementptr inbounds nuw %struct.sedge, ptr %28, i32 0, i32 2
  %30 = load i32, ptr %29, align 4, !tbaa !41
  %31 = sext i32 %30 to i64
  %32 = getelementptr inbounds %struct.snode, ptr %27, i64 %31
  store ptr %32, ptr %4, align 8
  br label %33

33:                                               ; preds = %24, %15
  %34 = load ptr, ptr %4, align 8
  ret ptr %34
}

; Function Attrs: nounwind uwtable
define i32 @shortPath(ptr noundef %0, ptr noundef %1, ptr noundef %2) #0 {
  %4 = alloca i32, align 4
  %5 = alloca ptr, align 8
  %6 = alloca ptr, align 8
  %7 = alloca ptr, align 8
  %8 = alloca ptr, align 8
  %9 = alloca ptr, align 8
  %10 = alloca ptr, align 8
  %11 = alloca i32, align 4
  %12 = alloca i32, align 4
  %13 = alloca i32, align 4
  %14 = alloca ptr, align 8
  %15 = alloca i32, align 4
  store ptr %0, ptr %5, align 8, !tbaa !3
  store ptr %1, ptr %6, align 8, !tbaa !36
  store ptr %2, ptr %7, align 8, !tbaa !36
  call void @llvm.lifetime.start.p0(i64 8, ptr %8) #8
  call void @llvm.lifetime.start.p0(i64 8, ptr %9) #8
  call void @llvm.lifetime.start.p0(i64 8, ptr %10) #8
  call void @llvm.lifetime.start.p0(i64 4, ptr %11) #8
  call void @llvm.lifetime.start.p0(i64 4, ptr %12) #8
  call void @llvm.lifetime.start.p0(i64 4, ptr %13) #8
  store i32 0, ptr %12, align 4, !tbaa !15
  br label %16

16:                                               ; preds = %31, %3
  %17 = load i32, ptr %12, align 4, !tbaa !15
  %18 = load ptr, ptr %5, align 8, !tbaa !3
  %19 = getelementptr inbounds nuw %struct.sgraph, ptr %18, i32 0, i32 0
  %20 = load i32, ptr %19, align 8, !tbaa !7
  %21 = icmp slt i32 %17, %20
  br i1 %21, label %22, label %34

22:                                               ; preds = %16
  call void @llvm.lifetime.start.p0(i64 8, ptr %14) #8
  %23 = load ptr, ptr %5, align 8, !tbaa !3
  %24 = getelementptr inbounds nuw %struct.sgraph, ptr %23, i32 0, i32 4
  %25 = load ptr, ptr %24, align 8, !tbaa !16
  %26 = load i32, ptr %12, align 4, !tbaa !15
  %27 = sext i32 %26 to i64
  %28 = getelementptr inbounds %struct.snode, ptr %25, i64 %27
  store ptr %28, ptr %14, align 8, !tbaa !36
  %29 = load ptr, ptr %14, align 8, !tbaa !36
  %30 = getelementptr inbounds nuw %struct.snode, ptr %29, i32 0, i32 0
  store i32 -2147483648, ptr %30, align 8, !tbaa !46
  call void @llvm.lifetime.end.p0(i64 8, ptr %14) #8
  br label %31

31:                                               ; preds = %22
  %32 = load i32, ptr %12, align 4, !tbaa !15
  %33 = add nsw i32 %32, 1
  store i32 %33, ptr %12, align 4, !tbaa !15
  br label %16, !llvm.loop !47

34:                                               ; preds = %16
  call void @PQinit()
  %35 = load ptr, ptr %6, align 8, !tbaa !36
  %36 = call i32 @PQ_insert(ptr noundef %35)
  %37 = icmp ne i32 %36, 0
  br i1 %37, label %38, label %39

38:                                               ; preds = %34
  store i32 1, ptr %4, align 4
  store i32 1, ptr %15, align 4
  br label %138

39:                                               ; preds = %34
  %40 = load ptr, ptr %6, align 8, !tbaa !36
  %41 = getelementptr inbounds nuw %struct.snode, ptr %40, i32 0, i32 2
  store ptr null, ptr %41, align 8, !tbaa !48
  %42 = load ptr, ptr %6, align 8, !tbaa !36
  %43 = getelementptr inbounds nuw %struct.snode, ptr %42, i32 0, i32 0
  store i32 0, ptr %43, align 8, !tbaa !46
  br label %44

44:                                               ; preds = %136, %39
  %45 = call ptr @PQremove()
  store ptr %45, ptr %8, align 8, !tbaa !36
  %46 = icmp ne ptr %45, null
  br i1 %46, label %47, label %137

47:                                               ; preds = %44
  %48 = load ptr, ptr %8, align 8, !tbaa !36
  %49 = getelementptr inbounds nuw %struct.snode, ptr %48, i32 0, i32 0
  %50 = load i32, ptr %49, align 8, !tbaa !46
  %51 = mul nsw i32 %50, -1
  store i32 %51, ptr %49, align 8, !tbaa !46
  %52 = load ptr, ptr %8, align 8, !tbaa !36
  %53 = load ptr, ptr %7, align 8, !tbaa !36
  %54 = icmp eq ptr %52, %53
  br i1 %54, label %55, label %56

55:                                               ; preds = %47
  br label %137

56:                                               ; preds = %47
  store i32 0, ptr %13, align 4, !tbaa !15
  br label %57

57:                                               ; preds = %133, %56
  %58 = load i32, ptr %13, align 4, !tbaa !15
  %59 = load ptr, ptr %8, align 8, !tbaa !36
  %60 = getelementptr inbounds nuw %struct.snode, ptr %59, i32 0, i32 4
  %61 = load i16, ptr %60, align 8, !tbaa !17
  %62 = sext i16 %61 to i32
  %63 = icmp slt i32 %58, %62
  br i1 %63, label %64, label %136

64:                                               ; preds = %57
  %65 = load ptr, ptr %5, align 8, !tbaa !3
  %66 = getelementptr inbounds nuw %struct.sgraph, ptr %65, i32 0, i32 5
  %67 = load ptr, ptr %66, align 8, !tbaa !28
  %68 = load ptr, ptr %8, align 8, !tbaa !36
  %69 = getelementptr inbounds nuw %struct.snode, ptr %68, i32 0, i32 7
  %70 = load ptr, ptr %69, align 8, !tbaa !29
  %71 = load i32, ptr %13, align 4, !tbaa !15
  %72 = sext i32 %71 to i64
  %73 = getelementptr inbounds i32, ptr %70, i64 %72
  %74 = load i32, ptr %73, align 4, !tbaa !15
  %75 = sext i32 %74 to i64
  %76 = getelementptr inbounds %struct.sedge, ptr %67, i64 %75
  store ptr %76, ptr %9, align 8, !tbaa !40
  %77 = load ptr, ptr %5, align 8, !tbaa !3
  %78 = load ptr, ptr %9, align 8, !tbaa !40
  %79 = load ptr, ptr %8, align 8, !tbaa !36
  %80 = call ptr @adjacentNode(ptr noundef %77, ptr noundef %78, ptr noundef %79)
  store ptr %80, ptr %10, align 8, !tbaa !36
  %81 = load ptr, ptr %10, align 8, !tbaa !36
  %82 = getelementptr inbounds nuw %struct.snode, ptr %81, i32 0, i32 0
  %83 = load i32, ptr %82, align 8, !tbaa !46
  %84 = icmp slt i32 %83, 0
  br i1 %84, label %85, label %132

85:                                               ; preds = %64
  %86 = load ptr, ptr %8, align 8, !tbaa !36
  %87 = getelementptr inbounds nuw %struct.snode, ptr %86, i32 0, i32 0
  %88 = load i32, ptr %87, align 8, !tbaa !46
  %89 = sitofp i32 %88 to double
  %90 = load ptr, ptr %9, align 8, !tbaa !40
  %91 = getelementptr inbounds nuw %struct.sedge, ptr %90, i32 0, i32 0
  %92 = load double, ptr %91, align 8, !tbaa !44
  %93 = fadd double %89, %92
  %94 = fneg double %93
  %95 = fptosi double %94 to i32
  store i32 %95, ptr %11, align 4, !tbaa !15
  %96 = load ptr, ptr %10, align 8, !tbaa !36
  %97 = getelementptr inbounds nuw %struct.snode, ptr %96, i32 0, i32 0
  %98 = load i32, ptr %97, align 8, !tbaa !46
  %99 = icmp eq i32 %98, -2147483648
  br i1 %99, label %100, label %115

100:                                              ; preds = %85
  %101 = load i32, ptr %11, align 4, !tbaa !15
  %102 = load ptr, ptr %10, align 8, !tbaa !36
  %103 = getelementptr inbounds nuw %struct.snode, ptr %102, i32 0, i32 0
  store i32 %101, ptr %103, align 8, !tbaa !46
  %104 = load ptr, ptr %10, align 8, !tbaa !36
  %105 = call i32 @PQ_insert(ptr noundef %104)
  %106 = icmp ne i32 %105, 0
  br i1 %106, label %107, label %108

107:                                              ; preds = %100
  store i32 1, ptr %4, align 4
  store i32 1, ptr %15, align 4
  br label %138

108:                                              ; preds = %100
  %109 = load ptr, ptr %8, align 8, !tbaa !36
  %110 = load ptr, ptr %10, align 8, !tbaa !36
  %111 = getelementptr inbounds nuw %struct.snode, ptr %110, i32 0, i32 2
  store ptr %109, ptr %111, align 8, !tbaa !48
  %112 = load ptr, ptr %9, align 8, !tbaa !40
  %113 = load ptr, ptr %10, align 8, !tbaa !36
  %114 = getelementptr inbounds nuw %struct.snode, ptr %113, i32 0, i32 3
  store ptr %112, ptr %114, align 8, !tbaa !49
  br label %131

115:                                              ; preds = %85
  %116 = load ptr, ptr %10, align 8, !tbaa !36
  %117 = getelementptr inbounds nuw %struct.snode, ptr %116, i32 0, i32 0
  %118 = load i32, ptr %117, align 8, !tbaa !46
  %119 = load i32, ptr %11, align 4, !tbaa !15
  %120 = icmp slt i32 %118, %119
  br i1 %120, label %121, label %130

121:                                              ; preds = %115
  %122 = load ptr, ptr %10, align 8, !tbaa !36
  %123 = load i32, ptr %11, align 4, !tbaa !15
  call void @PQupdate(ptr noundef %122, i32 noundef %123)
  %124 = load ptr, ptr %8, align 8, !tbaa !36
  %125 = load ptr, ptr %10, align 8, !tbaa !36
  %126 = getelementptr inbounds nuw %struct.snode, ptr %125, i32 0, i32 2
  store ptr %124, ptr %126, align 8, !tbaa !48
  %127 = load ptr, ptr %9, align 8, !tbaa !40
  %128 = load ptr, ptr %10, align 8, !tbaa !36
  %129 = getelementptr inbounds nuw %struct.snode, ptr %128, i32 0, i32 3
  store ptr %127, ptr %129, align 8, !tbaa !49
  br label %130

130:                                              ; preds = %121, %115
  br label %131

131:                                              ; preds = %130, %108
  br label %132

132:                                              ; preds = %131, %64
  br label %133

133:                                              ; preds = %132
  %134 = load i32, ptr %13, align 4, !tbaa !15
  %135 = add nsw i32 %134, 1
  store i32 %135, ptr %13, align 4, !tbaa !15
  br label %57, !llvm.loop !50

136:                                              ; preds = %57
  br label %44, !llvm.loop !51

137:                                              ; preds = %55, %44
  store i32 0, ptr %4, align 4
  store i32 1, ptr %15, align 4
  br label %138

138:                                              ; preds = %137, %107, %38
  call void @llvm.lifetime.end.p0(i64 4, ptr %13) #8
  call void @llvm.lifetime.end.p0(i64 4, ptr %12) #8
  call void @llvm.lifetime.end.p0(i64 4, ptr %11) #8
  call void @llvm.lifetime.end.p0(i64 8, ptr %10) #8
  call void @llvm.lifetime.end.p0(i64 8, ptr %9) #8
  call void @llvm.lifetime.end.p0(i64 8, ptr %8) #8
  %139 = load i32, ptr %4, align 4
  ret i32 %139
}