; Function Attrs: nounwind uwtable
define range(i32 0, 2) i32 @shortPath(ptr noundef readonly captures(none) %0, ptr noundef %1, ptr noundef readnone captures(address) %2) local_unnamed_addr #5 {
  %4 = load i32, ptr %0, align 8, !tbaa !3
  %5 = icmp sgt i32 %4, 0
  br i1 %5, label %.lr.ph, label %._crit_edge

.lr.ph:                                           ; preds = %3
  %6 = getelementptr inbounds nuw i8, ptr %0, i64 16
  %7 = load ptr, ptr %6, align 8, !tbaa !14
  %wide.trip.count = zext nneg i32 %4 to i64
  br label %8

8:                                                ; preds = %.lr.ph, %8
  %indvars.iv = phi i64 [ 0, %.lr.ph ], [ %indvars.iv.next, %8 ]
  %9 = getelementptr inbounds nuw %struct.snode, ptr %7, i64 %indvars.iv
  store i32 -2147483648, ptr %9, align 8, !tbaa !39
  %indvars.iv.next = add nuw nsw i64 %indvars.iv, 1
  %exitcond.not = icmp eq i64 %indvars.iv.next, %wide.trip.count
  br i1 %exitcond.not, label %._crit_edge, label %8, !llvm.loop !40

._crit_edge:                                      ; preds = %8, %3
  tail call void @PQinit() #14
  %10 = tail call i32 @PQ_insert(ptr noundef %1) #14
  %.not = icmp eq i32 %10, 0
  br i1 %.not, label %11, label %.loopexit47

11:                                               ; preds = %._crit_edge
  %12 = getelementptr inbounds nuw i8, ptr %1, i64 8
  store ptr null, ptr %12, align 8, !tbaa !41
  store i32 0, ptr %1, align 8, !tbaa !39
  %13 = tail call ptr @PQremove() #14
  %.not4552 = icmp eq ptr %13, null
  br i1 %.not4552, label %.loopexit47, label %.lr.ph54

.lr.ph54:                                         ; preds = %11
  %14 = getelementptr inbounds nuw i8, ptr %0, i64 24
  %15 = getelementptr inbounds nuw i8, ptr %0, i64 16
  br label %17

.loopexit:                                        ; preds = %60, %.preheader
  %16 = tail call ptr @PQremove() #14
  %.not45 = icmp eq ptr %16, null
  br i1 %.not45, label %.loopexit47, label %17, !llvm.loop !42

17:                                               ; preds = %.lr.ph54, %.loopexit
  %18 = phi ptr [ %13, %.lr.ph54 ], [ %16, %.loopexit ]
  %19 = load i32, ptr %18, align 8, !tbaa !39
  %20 = sub nsw i32 0, %19
  store i32 %20, ptr %18, align 8, !tbaa !39
  %21 = icmp eq ptr %18, %2
  br i1 %21, label %.loopexit47, label %.preheader

.preheader:                                       ; preds = %17
  %22 = getelementptr inbounds nuw i8, ptr %18, i64 24
  %23 = load i16, ptr %22, align 8, !tbaa !15
  %24 = icmp sgt i16 %23, 0
  br i1 %24, label %.lr.ph51, label %.loopexit

.lr.ph51:                                         ; preds = %.preheader
  %25 = getelementptr inbounds nuw i8, ptr %18, i64 48
  %26 = getelementptr i8, ptr %18, i64 56
  br label %27

27:                                               ; preds = %.lr.ph51, %60
  %indvars.iv58 = phi i64 [ 0, %.lr.ph51 ], [ %indvars.iv.next59, %60 ]
  %28 = load ptr, ptr %14, align 8, !tbaa !27
  %29 = load ptr, ptr %25, align 8, !tbaa !28
  %30 = getelementptr inbounds nuw i32, ptr %29, i64 %indvars.iv58
  %31 = load i32, ptr %30, align 4, !tbaa !38
  %32 = sext i32 %31 to i64
  %33 = getelementptr inbounds %struct.sedge, ptr %28, i64 %32
  %.val = load i32, ptr %26, align 8, !tbaa !31
  %34 = getelementptr inbounds nuw i8, ptr %33, i64 12
  %35 = load i32, ptr %34, align 4, !tbaa !32
  %36 = icmp eq i32 %35, %.val
  %37 = load ptr, ptr %15, align 8, !tbaa !14
  br i1 %36, label %38, label %adjacentNode.exit

38:                                               ; preds = %27
  %39 = getelementptr inbounds nuw i8, ptr %33, i64 16
  %40 = load i32, ptr %39, align 8, !tbaa !35
  br label %adjacentNode.exit

adjacentNode.exit:                                ; preds = %27, %38
  %.sink1.i = phi i32 [ %40, %38 ], [ %35, %27 ]
  %41 = sext i32 %.sink1.i to i64
  %42 = getelementptr inbounds %struct.snode, ptr %37, i64 %41
  %43 = load i32, ptr %42, align 8, !tbaa !39
  %44 = icmp slt i32 %43, 0
  br i1 %44, label %45, label %60

45:                                               ; preds = %adjacentNode.exit
  %46 = load i32, ptr %18, align 8, !tbaa !39
  %47 = sitofp i32 %46 to double
  %48 = load double, ptr %33, align 8, !tbaa !36
  %49 = fadd double %48, %47
  %50 = fneg double %49
  %51 = fptosi double %50 to i32
  %52 = icmp eq i32 %43, -2147483648
  br i1 %52, label %53, label %55

53:                                               ; preds = %45
  store i32 %51, ptr %42, align 8, !tbaa !39
  %54 = tail call i32 @PQ_insert(ptr noundef nonnull %42) #14
  %.not46 = icmp eq i32 %54, 0
  br i1 %.not46, label %.sink.split, label %.loopexit47

55:                                               ; preds = %45
  %56 = icmp slt i32 %43, %51
  br i1 %56, label %57, label %60

57:                                               ; preds = %55
  tail call void @PQupdate(ptr noundef nonnull %42, i32 noundef %51) #14
  br label %.sink.split

.sink.split:                                      ; preds = %53, %57
  %58 = getelementptr inbounds nuw i8, ptr %42, i64 8
  store ptr %18, ptr %58, align 8, !tbaa !41
  %59 = getelementptr inbounds nuw i8, ptr %42, i64 16
  store ptr %33, ptr %59, align 8, !tbaa !43
  br label %60

60:                                               ; preds = %.sink.split, %adjacentNode.exit, %55
  %indvars.iv.next59 = add nuw nsw i64 %indvars.iv58, 1
  %61 = load i16, ptr %22, align 8, !tbaa !15
  %62 = sext i16 %61 to i64
  %63 = icmp slt i64 %indvars.iv.next59, %62
  br i1 %63, label %27, label %.loopexit, !llvm.loop !44

.loopexit47:                                      ; preds = %17, %.loopexit, %53, %11, %._crit_edge
  %.0 = phi i32 [ 1, %._crit_edge ], [ 0, %11 ], [ 1, %53 ], [ 0, %.loopexit ], [ 0, %17 ]
  ret i32 %.0
}